; Function Attrs: nounwind uwtable
define internal noundef i32 @sm4_cbc_cipher(ptr noundef %0, ptr noundef %1, ptr noundef %2, i64 noundef %3) #1 {
  %5 = tail call ptr @EVP_CIPHER_CTX_get_cipher_data(ptr noundef %0) #4
  %6 = getelementptr inbounds nuw i8, ptr %5, i64 136
  %7 = load ptr, ptr %6, align 8, !tbaa !8
  %.not = icmp eq ptr %7, null
  br i1 %.not, label %11, label %8

8:                                                ; preds = %4
  %9 = getelementptr inbounds nuw i8, ptr %0, i64 40
  %10 = tail call i32 @EVP_CIPHER_CTX_is_encrypting(ptr noundef %0) #4
  tail call void %7(ptr noundef %2, ptr noundef %1, i64 noundef %3, ptr noundef nonnull %5, ptr noundef nonnull %9, i32 noundef %10) #4
  br label %18

11:                                               ; preds = %4
  %12 = tail call i32 @EVP_CIPHER_CTX_is_encrypting(ptr noundef %0) #4
  %.not21 = icmp eq i32 %12, 0
  %13 = getelementptr inbounds nuw i8, ptr %0, i64 40
  %14 = getelementptr inbounds nuw i8, ptr %5, i64 128
  %15 = load ptr, ptr %14, align 8, !tbaa !3
  br i1 %.not21, label %17, label %16

16:                                               ; preds = %11
  tail call void @CRYPTO_cbc128_encrypt(ptr noundef %2, ptr noundef %1, i64 noundef %3, ptr noundef nonnull %5, ptr noundef nonnull %13, ptr noundef %15) #4
  br label %18

17:                                               ; preds = %11
  tail call void @CRYPTO_cbc128_decrypt(ptr noundef %2, ptr noundef %1, i64 noundef %3, ptr noundef nonnull %5, ptr noundef nonnull %13, ptr noundef %15) #4
  br label %18

18:                                               ; preds = %16, %17, %8
  ret i32 1
}